target datalayout = "e-m:e-p270:32:32-p271:32:32-p272:64:64-i64:64-i128:128-f80:128-n8:16:32:64-S128"
target triple = "x86_64-pc-linux-gnu"

%class.QAbstractItemModel = type { %class.QObject }
%class.QObject = type { ptr, %class.QScopedPointer }
%class.QScopedPointer = type { ptr }
%class.QString = type { %struct.QArrayDataPointer }
%struct.QArrayDataPointer = type { ptr, ptr, i64 }
%class.QModelIndex = type { i32, i32, i64, ptr }
%class.QVariant = type { %"struct.QVariant::Private" }
%"struct.QVariant::Private" = type { %union.anon.3, i64 }
%union.anon.3 = type { ptr, [16 x i8] }
%class.QList = type { %struct.QArrayDataPointer.4 }
%struct.QArrayDataPointer.4 = type { ptr, ptr, i64 }
%class.ProfileModel = type { %class.QAbstractTableModel, i32, i32, %class.QList.5, %class.QList, %class.QString, i8, i8, i32 }
%class.QAbstractTableModel = type { %class.QAbstractItemModel }
%class.QList.5 = type { %struct.QArrayDataPointer.8 }
%struct.QArrayDataPointer.8 = type { ptr, ptr, i64 }

@_ZN12ProfileModelC1EP7QObject = unnamed_addr alias void (ptr, ptr), ptr @_ZN12ProfileModelC2EP7QObject

; Function Attrs: inlinehint mustprogress nounwind null_pointer_is_valid sspstrong uwtable
define linkonce_odr void @_ZN8QVariant7PrivateUt_C2Ev(ptr noundef align 8 dereferenceable_or_null(24) %0) unnamed_addr #4 comdat align 2 {
  %2 = alloca ptr, align 8
  store ptr %0, ptr %2, align 8
  %3 = load ptr, ptr %2, align 8
  %4 = getelementptr inbounds i8, ptr %3, i64 24
  br label %5

5:                                                ; preds = %5, %1
  %6 = phi ptr [ %3, %1 ], [ %7, %5 ]
  store i8 0, ptr %6, align 1
  %7 = getelementptr inbounds i8, ptr %6, i64 1
  %8 = icmp eq ptr %7, %4
  br i1 %8, label %9, label %5

9:                                                ; preds = %5
  ret void
}

; Function Attrs: mustprogress nounwind null_pointer_is_valid sspstrong uwtable
define linkonce_odr void @_ZN8QVariant7PrivateC2Ev(ptr noundef align 8 dereferenceable_or_null(32) %0) unnamed_addr #8 comdat align 2 {
  %2 = alloca ptr, align 8
  store ptr %0, ptr %2, align 8
  %3 = load ptr, ptr %2, align 8
  %4 = getelementptr inbounds nuw %"struct.QVariant::Private", ptr %3, i32 0, i32 0
  call void @_ZN8QVariant7PrivateUt_C2Ev(ptr noundef align 8 dereferenceable_or_null(24) %4) #1
  %5 = getelementptr inbounds nuw %"struct.QVariant::Private", ptr %3, i32 0, i32 1
  %6 = load i64, ptr %5, align 8
  %7 = and i64 %6, -2
  %8 = or i64 %7, 0
  store i64 %8, ptr %5, align 8
  %9 = getelementptr inbounds nuw %"struct.QVariant::Private", ptr %3, i32 0, i32 1
  %10 = load i64, ptr %9, align 8
  %11 = and i64 %10, -3
  %12 = or i64 %11, 2
  store i64 %12, ptr %9, align 8
  %13 = getelementptr inbounds nuw %"struct.QVariant::Private", ptr %3, i32 0, i32 1
  %14 = load i64, ptr %13, align 8
  %15 = and i64 %14, 3
  %16 = or i64 %15, 0
  store i64 %16, ptr %13, align 8
  ret void
}

; Function Attrs: mustprogress nounwind null_pointer_is_valid sspstrong uwtable
define linkonce_odr void @_ZN8QVariantC2Ev(ptr noundef align 8 dereferenceable_or_null(32) %0) unnamed_addr #8 comdat align 2 {
  %2 = alloca ptr, align 8
  store ptr %0, ptr %2, align 8
  %3 = load ptr, ptr %2, align 8
  %4 = getelementptr inbounds nuw %class.QVariant, ptr %3, i32 0, i32 0
  call void @_ZN8QVariant7PrivateC2Ev(ptr noundef align 8 dereferenceable_or_null(32) %4) #1
  ret void
}

; Function Attrs: inlinehint mustprogress null_pointer_is_valid sspstrong uwtable
define linkonce_odr void @_ZNK11QModelIndex4dataEi(ptr dead_on_unwind noalias writable sret(%class.QVariant) align 8 %0, ptr noundef align 8 dereferenceable_or_null(24) %1, i32 noundef %2) #7 comdat align 2 {
  %4 = alloca ptr, align 8
  %5 = alloca ptr, align 8
  %6 = alloca i32, align 4
  store ptr %0, ptr %4, align 8
  store ptr %1, ptr %5, align 8
  store i32 %2, ptr %6, align 4
  %7 = load ptr, ptr %5, align 8
  %8 = getelementptr inbounds nuw %class.QModelIndex, ptr %7, i32 0, i32 3
  %9 = load ptr, ptr %8, align 8
  %10 = icmp ne ptr %9, null
  br i1 %10, label %11, label %18

11:                                               ; preds = %3
  %12 = getelementptr inbounds nuw %class.QModelIndex, ptr %7, i32 0, i32 3
  %13 = load ptr, ptr %12, align 8
  %14 = load i32, ptr %6, align 4
  %15 = load ptr, ptr %13, align 8
  %16 = getelementptr inbounds ptr, ptr %15, i64 18
  %17 = load ptr, ptr %16, align 8
  call void %17(ptr dead_on_unwind writable sret(%class.QVariant) align 8 %0, ptr noundef align 8 dereferenceable_or_null(16) %13, ptr noundef align 8 dereferenceable(24) %7, i32 noundef %14)
  br label %19

18:                                               ; preds = %3
  call void @_ZN8QVariantC2Ev(ptr noundef align 8 dereferenceable_or_null(32) %0) #1
  br label %19

19:                                               ; preds = %18, %11
  ret void
}

; Function Attrs: mustprogress null_pointer_is_valid sspstrong uwtable
define void @_ZN12ProfileModel17activeProfilePathEv(ptr dead_on_unwind noalias writable sret(%class.QString) align 8 %0) #0 align 2 personality ptr @__gxx_personality_v0 {
  %2 = alloca ptr, align 8
  %3 = alloca %class.ProfileModel, align 8
  %4 = alloca %class.QModelIndex, align 8
  %5 = alloca ptr, align 8
  %6 = alloca i32, align 4
  %7 = alloca %class.QVariant, align 8
  store ptr %0, ptr %2, align 8
  call void @llvm.lifetime.start.p0(i64 104, ptr %3) #1
  call void @_ZN12ProfileModelC1EP7QObject(ptr noundef align 8 dereferenceable_or_null(104) %3, ptr noundef null)
  call void @llvm.lifetime.start.p0(i64 24, ptr %4) #1
  invoke void @_ZNK12ProfileModel13activeProfileEv(ptr dead_on_unwind writable sret(%class.QModelIndex) align 8 %4, ptr noundef align 8 dereferenceable_or_null(104) %3)
          to label %8 unwind label %11

8:                                                ; preds = %1
  call void @llvm.lifetime.start.p0(i64 32, ptr %7) #1
  invoke void @_ZNK11QModelIndex4dataEi(ptr dead_on_unwind writable sret(%class.QVariant) align 8 %7, ptr noundef align 8 dereferenceable_or_null(24) %4, i32 noundef 260)
          to label %9 unwind label %15

9:                                                ; preds = %8
  invoke void @_ZNK8QVariant8toStringEv(ptr dead_on_unwind writable sret(%class.QString) align 8 %0, ptr noundef align 8 dereferenceable_or_null(32) %7)
          to label %10 unwind label %19

10:                                               ; preds = %9
  call void @_ZN8QVariantD1Ev(ptr noundef align 8 dereferenceable_or_null(32) %7) #1
  call void @llvm.lifetime.end.p0(i64 32, ptr %7) #1
  call void @llvm.lifetime.end.p0(i64 24, ptr %4) #1
  call void @_ZN12ProfileModelD2Ev(ptr noundef align 8 dereferenceable_or_null(104) %3) #1
  call void @llvm.lifetime.end.p0(i64 104, ptr %3) #1
  ret void

11:                                               ; preds = %1
  %12 = landingpad { ptr, i32 }
          cleanup
  %13 = extractvalue { ptr, i32 } %12, 0
  store ptr %13, ptr %5, align 8
  %14 = extractvalue { ptr, i32 } %12, 1
  store i32 %14, ptr %6, align 4
  br label %24

15:                                               ; preds = %8
  %16 = landingpad { ptr, i32 }
          cleanup
  %17 = extractvalue { ptr, i32 } %16, 0
  store ptr %17, ptr %5, align 8
  %18 = extractvalue { ptr, i32 } %16, 1
  store i32 %18, ptr %6, align 4
  br label %23

19:                                               ; preds = %9
  %20 = landingpad { ptr, i32 }
          cleanup
  %21 = extractvalue { ptr, i32 } %20, 0
  store ptr %21, ptr %5, align 8
  %22 = extractvalue { ptr, i32 } %20, 1
  store i32 %22, ptr %6, align 4
  call void @_ZN8QVariantD1Ev(ptr noundef align 8 dereferenceable_or_null(32) %7) #1
  br label %23

23:                                               ; preds = %19, %15
  call void @llvm.lifetime.end.p0(i64 32, ptr %7) #1
  br label %24

24:                                               ; preds = %23, %11
  call void @llvm.lifetime.end.p0(i64 24, ptr %4) #1
  call void @_ZN12ProfileModelD2Ev(ptr noundef align 8 dereferenceable_or_null(104) %3) #1
  call void @llvm.lifetime.end.p0(i64 104, ptr %3) #1
  br label %25

25:                                               ; preds = %24
  %26 = load ptr, ptr %5, align 8
  %27 = load i32, ptr %6, align 4
  %28 = insertvalue { ptr, i32 } poison, ptr %26, 0
  %29 = insertvalue { ptr, i32 } %28, i32 %27, 1
  resume { ptr, i32 } %29
}